; ModuleID = '1287.c'
source_filename = "1287.c"
target datalayout = "e-m:e-p270:32:32-p271:32:32-p272:64:64-i64:64-f80:128-n8:16:32:64-S128"
target triple = "x86_64-pc-linux-gnu"

%struct.myturn = type { [10 x i8], i32 }

@.str = private unnamed_addr constant [3 x i8] c"%d\00", align 1
@.str.1 = private unnamed_addr constant [5 x i8] c"%s%d\00", align 1
@.str.2 = private unnamed_addr constant [4 x i8] c"%s\0A\00", align 1
@.str.3 = private unnamed_addr constant [3 x i8] c"%s\00", align 1
@.str.4 = private unnamed_addr constant [2 x i8] c"\0A\00", align 1

; Function Attrs: noinline nounwind uwtable
define dso_local i32 @main() #0 {
  %1 = alloca i32, align 4
  %2 = alloca i32, align 4
  %3 = alloca i32, align 4
  %4 = alloca i32, align 4
  %5 = alloca i32, align 4
  %6 = alloca [100 x %struct.myturn], align 16
  store i32 0, i32* %1, align 4
  store i32 0, i32* %4, align 4
  store i32 0, i32* %5, align 4
  %7 = call i32 (i8*, ...) @__isoc99_scanf(i8* getelementptr inbounds ([3 x i8], [3 x i8]* @.str, i64 0, i64 0), i32* %2)
  store i32 0, i32* %3, align 4
  br label %8

8:                                                ; preds = %36, %0
  %9 = load i32, i32* %3, align 4
  %10 = load i32, i32* %2, align 4
  %11 = icmp slt i32 %9, %10
  br i1 %11, label %12, label %39

12:                                               ; preds = %8
  %13 = load i32, i32* %3, align 4
  %14 = sext i32 %13 to i64
  %15 = getelementptr inbounds [100 x %struct.myturn], [100 x %struct.myturn]* %6, i64 0, i64 %14
  %16 = getelementptr inbounds %struct.myturn, %struct.myturn* %15, i32 0, i32 0
  %17 = load i32, i32* %3, align 4
  %18 = sext i32 %17 to i64
  %19 = getelementptr inbounds [100 x %struct.myturn], [100 x %struct.myturn]* %6, i64 0, i64 %18
  %20 = getelementptr inbounds %struct.myturn, %struct.myturn* %19, i32 0, i32 1
  %21 = call i32 (i8*, ...) @__isoc99_scanf(i8* getelementptr inbounds ([5 x i8], [5 x i8]* @.str.1, i64 0, i64 0), [10 x i8]* %16, i32* %20)
  %22 = load i32, i32* %3, align 4
  %23 = sext i32 %22 to i64
  %24 = getelementptr inbounds [100 x %struct.myturn], [100 x %struct.myturn]* %6, i64 0, i64 %23
  %25 = getelementptr inbounds %struct.myturn, %struct.myturn* %24, i32 0, i32 1
  %26 = load i32, i32* %25, align 4
  %27 = load i32, i32* %5, align 4
  %28 = icmp sgt i32 %26, %27
  br i1 %28, label %29, label %35

29:                                               ; preds = %12
  %30 = load i32, i32* %3, align 4
  %31 = sext i32 %30 to i64
  %32 = getelementptr inbounds [100 x %struct.myturn], [100 x %struct.myturn]* %6, i64 0, i64 %31
  %33 = getelementptr inbounds %struct.myturn, %struct.myturn* %32, i32 0, i32 1
  %34 = load i32, i32* %33, align 4
  store i32 %34, i32* %5, align 4
  br label %35

35:                                               ; preds = %29, %12
  br label %36

36:                                               ; preds = %35
  %37 = load i32, i32* %3, align 4
  %38 = add nsw i32 %37, 1
  store i32 %38, i32* %3, align 4
  br label %8

39:                                               ; preds = %8
  %40 = load i32, i32* %5, align 4
  %41 = icmp sge i32 %40, 60
  br i1 %41, label %42, label %82

42:                                               ; preds = %39
  %43 = load i32, i32* %5, align 4
  br label %44

44:                                               ; preds = %78, %42
  %45 = load i32, i32* %5, align 4
  %46 = icmp sge i32 %45, 60
  br i1 %46, label %47, label %81

47:                                               ; preds = %44
  store i32 0, i32* %3, align 4
  br label %48

48:                                               ; preds = %74, %47
  %49 = load i32, i32* %3, align 4
  %50 = load i32, i32* %2, align 4
  %51 = icmp slt i32 %49, %50
  br i1 %51, label %52, label %77

52:                                               ; preds = %48
  %53 = load i32, i32* %3, align 4
  %54 = sext i32 %53 to i64
  %55 = getelementptr inbounds [100 x %struct.myturn], [100 x %struct.myturn]* %6, i64 0, i64 %54
  %56 = getelementptr inbounds %struct.myturn, %struct.myturn* %55, i32 0, i32 1
  %57 = load i32, i32* %56, align 4
  %58 = load i32, i32* %5, align 4
  %59 = icmp eq i32 %57, %58
  br i1 %59, label %60, label %73

60:                                               ; preds = %52
  %61 = load i32, i32* %3, align 4
  %62 = sext i32 %61 to i64
  %63 = getelementptr inbounds [100 x %struct.myturn], [100 x %struct.myturn]* %6, i64 0, i64 %62
  %64 = getelementptr inbounds %struct.myturn, %struct.myturn* %63, i32 0, i32 0
  %65 = getelementptr inbounds [10 x i8], [10 x i8]* %64, i64 0, i64 0
  %66 = call i32 (i8*, ...) @printf(i8* getelementptr inbounds ([4 x i8], [4 x i8]* @.str.2, i64 0, i64 0), i8* %65)
  %67 = load i32, i32* %3, align 4
  %68 = sext i32 %67 to i64
  %69 = getelementptr inbounds [100 x %struct.myturn], [100 x %struct.myturn]* %6, i64 0, i64 %68
  %70 = getelementptr inbounds %struct.myturn, %struct.myturn* %69, i32 0, i32 1
  store i32 0, i32* %70, align 4
  %71 = load i32, i32* %4, align 4
  %72 = add nsw i32 %71, 1
  store i32 %72, i32* %4, align 4
  br label %73

73:                                               ; preds = %60, %52
  br label %74

74:                                               ; preds = %73
  %75 = load i32, i32* %3, align 4
  %76 = add nsw i32 %75, 1
  store i32 %76, i32* %3, align 4
  br label %48

77:                                               ; preds = %48
  br label %78

78:                                               ; preds = %77
  %79 = load i32, i32* %5, align 4
  %80 = add nsw i32 %79, -1
  store i32 %80, i32* %5, align 4
  br label %44

81:                                               ; preds = %44
  br label %82

82:                                               ; preds = %81, %39
  store i32 0, i32* %3, align 4
  br label %83

83:                                               ; preds = %110, %82
  %84 = load i32, i32* %3, align 4
  %85 = load i32, i32* %2, align 4
  %86 = icmp slt i32 %84, %85
  br i1 %86, label %87, label %113

87:                                               ; preds = %83
  %88 = load i32, i32* %3, align 4
  %89 = sext i32 %88 to i64
  %90 = getelementptr inbounds [100 x %struct.myturn], [100 x %struct.myturn]* %6, i64 0, i64 %89
  %91 = getelementptr inbounds %struct.myturn, %struct.myturn* %90, i32 0, i32 1
  %92 = load i32, i32* %91, align 4
  %93 = icmp ne i32 %92, 0
  br i1 %93, label %94, label %109

94:                                               ; preds = %87
  %95 = load i32, i32* %3, align 4
  %96 = sext i32 %95 to i64
  %97 = getelementptr inbounds [100 x %struct.myturn], [100 x %struct.myturn]* %6, i64 0, i64 %96
  %98 = getelementptr inbounds %struct.myturn, %struct.myturn* %97, i32 0, i32 0
  %99 = getelementptr inbounds [10 x i8], [10 x i8]* %98, i64 0, i64 0
  %100 = call i32 (i8*, ...) @printf(i8* getelementptr inbounds ([3 x i8], [3 x i8]* @.str.3, i64 0, i64 0), i8* %99)
  %101 = load i32, i32* %4, align 4
  %102 = add nsw i32 %101, 1
  store i32 %102, i32* %4, align 4
  %103 = load i32, i32* %4, align 4
  %104 = load i32, i32* %2, align 4
  %105 = icmp slt i32 %103, %104
  br i1 %105, label %106, label %108

106:                                              ; preds = %94
  %107 = call i32 (i8*, ...) @printf(i8* getelementptr inbounds ([2 x i8], [2 x i8]* @.str.4, i64 0, i64 0))
  br label %108

108:                                              ; preds = %106, %94
  br label %109

109:                                              ; preds = %108, %87
  br label %110

110:                                              ; preds = %109
  %111 = load i32, i32* %3, align 4
  %112 = add nsw i32 %111, 1
  store i32 %112, i32* %3, align 4
  br label %83

113:                                              ; preds = %83
  ret i32 0
}

declare dso_local i32 @__isoc99_scanf(i8*, ...) #1

declare dso_local i32 @printf(i8*, ...) #1


!llvm.module.flags = !{!0}
!llvm.ident = !{!1}

!0 = !{i32 1, !"wchar_size", i32 4}
!1 = !{!"clang version 10.0.0-4ubuntu1 "}
